Certificate:
    Data:
        Version: 3 (0x2)
        Serial Number: 13 (0xd)
        Signature Algorithm: sha256WithRSAEncryption
        Issuer: C=CN, ST=cixc.net, L=cixc.net, O=cixc.net, OU=cixc.net, CN=cixc.net
        Validity
            Not Before: May  8 15:34:16 2021 GMT
            Not After : May  8 15:34:16 2022 GMT
        Subject: C=CN, ST=cixc.net, O=cixc.net, OU=cixc.net, CN=cixc.net
        Subject Public Key Info:
            Public Key Algorithm: rsaEncryption
                RSA Public-Key: (2048 bit)
                Modulus:
                    00:b0:77:9c:83:1a:5e:16:8d:ac:05:02:76:19:1e:
                    b6:f8:d6:75:7e:9b:ed:94:1b:73:e7:e6:ca:ff:7d:
                    e2:93:9f:2c:01:73:1b:80:ad:bf:e4:d0:64:d5:10:
                    c2:d5:d5:82:71:7a:fb:45:f2:1c:6e:f5:b2:2b:93:
                    29:f2:b9:08:be:47:90:01:8b:c5:1e:45:5d:cf:ea:
                    4d:3a:a0:e1:89:a9:27:36:bb:b3:d9:fe:c5:bb:d8:
                    db:a9:59:ef:40:ad:f1:38:4e:63:fb:27:7f:4e:7c:
                    4a:01:81:bc:26:94:86:6d:f4:68:28:06:78:d5:5c:
                    e8:91:68:fa:b3:34:05:c3:97:a4:a0:73:a2:53:fd:
                    e3:56:8a:63:dc:f2:4f:8d:b7:3b:47:87:16:83:17:
                    ec:2f:71:5b:41:64:2d:f0:6b:77:43:68:4d:84:3f:
                    1f:66:10:2f:bd:58:52:c4:f7:97:11:b6:0d:7e:ab:
                    ff:d4:58:ea:39:eb:e6:ad:17:4d:ad:7c:1c:0a:73:
                    0f:73:7b:2e:e6:5e:95:8b:c9:12:e4:cc:de:2a:a3:
                    67:2e:3e:b3:d9:b5:10:70:69:31:0f:f0:aa:b9:1a:
                    8f:1c:33:c8:5b:88:08:6e:08:26:60:c1:25:e6:d2:
                    ed:8e:1e:9a:da:89:1c:24:8f:f4:be:8e:95:60:6e:
                    2b:67
                Exponent: 65537 (0x10001)
        X509v3 extensions:
            X509v3 Basic Constraints: 
                CA:FALSE
            X509v3 Key Usage: 
                Digital Signature, Non Repudiation, Key Encipherment
    Signature Algorithm: sha256WithRSAEncryption
         60:35:51:52:52:a9:66:17:b7:1f:9c:f9:50:ee:6e:5e:f0:78:
         d5:f4:b9:0c:5f:0b:3f:a8:15:1f:69:2a:02:79:73:6c:b8:31:
         28:be:2d:70:b4:aa:ee:82:12:e8:2e:7c:34:24:eb:31:ee:4f:
         57:5b:29:cc:52:59:92:25:13:04:6f:2b:ed:b4:2b:bf:96:2f:
         0c:3f:a5:2c:ba:f1:ec:96:fa:5f:5d:68:df:ae:11:5d:92:66:
         c3:f4:00:29:21:88:a6:4d:d6:6d:e6:6b:32:bf:ab:2d:43:f7:
         28:38:45:81:7f:2a:bf:ce:9d:aa:b8:eb:19:e2:1d:5c:e9:74:
         2c:c3:ac:81:70:20:d8:1b:fa:16:f6:d5:14:bb:d3:b7:56:2e:
         88:92:ff:b7:6a:42:8b:04:f7:c4:5a:f7:57:a1:d0:bd:e4:cd:
         bd:3a:cf:33:ca:fd:d5:f9:7f:0f:f5:b2:84:93:28:ef:f3:c3:
         5b:51:49:40:46:c4:b0:7d:5a:03:99:42:df:72:e6:d8:14:cd:
         0b:fe:2d:13:a4:0f:08:e4:cf:e3:42:06:e5:92:4e:72:2f:d3:
         ba:27:6f:0d:f0:16:42:ac:50:5d:61:ce:bb:d4:ab:f1:ae:de:
         d7:fa:fc:fb:47:ad:54:28:55:53:4f:3c:c2:3f:98:83:01:b7:
         06:ac:c5:39
-----BEGIN CERTIFICATE-----
MIIDWjCCAkKgAwIBAgIBDTANBgkqhkiG9w0BAQsFADBsMQswCQYDVQQGEwJDTjER
MA8GA1UECAwIY2l4Yy5uZXQxETAPBgNVBAcMCGNpeGMubmV0MREwDwYDVQQKDAhj
aXhjLm5ldDERMA8GA1UECwwIY2l4Yy5uZXQxETAPBgNVBAMMCGNpeGMubmV0MB4X
DTIxMDUwODE1MzQxNloXDTIyMDUwODE1MzQxNlowWTELMAkGA1UEBhMCQ04xETAP
BgNVBAgMCGNpeGMubmV0MREwDwYDVQQKDAhjaXhjLm5ldDERMA8GA1UECwwIY2l4
Yy5uZXQxETAPBgNVBAMMCGNpeGMubmV0MIIBIjANBgkqhkiG9w0BAQEFAAOCAQ8A
MIIBCgKCAQEAsHecgxpeFo2sBQJ2GR62+NZ1fpvtlBtz5+bK/33ik58sAXMbgK2/
5NBk1RDC1dWCcXr7RfIcbvWyK5Mp8rkIvkeQAYvFHkVdz+pNOqDhiaknNruz2f7F
u9jbqVnvQK3xOE5j+yd/TnxKAYG8JpSGbfRoKAZ41VzokWj6szQFw5ekoHOiU/3j
Vopj3PJPjbc7R4cWgxfsL3FbQWQt8Gt3Q2hNhD8fZhAvvVhSxPeXEbYNfqv/1Fjq
OevmrRdNrXwcCnMPc3su5l6Vi8kS5MzeKqNnLj6z2bUQcGkxD/CquRqPHDPIW4gI
bggmYMEl5tLtjh6a2okcJI/0vo6VYG4rZwIDAQABoxowGDAJBgNVHRMEAjAAMAsG
A1UdDwQEAwIF4DANBgkqhkiG9w0BAQsFAAOCAQEAYDVRUlKpZhe3H5z5UO5uXvB4
1fS5DF8LP6gVH2kqAnlzbLgxKL4tcLSq7oIS6C58NCTrMe5PV1spzFJZkiUTBG8r
7bQrv5YvDD+lLLrx7Jb6X11o364RXZJmw/QAKSGIpk3WbeZrMr+rLUP3KDhFgX8q
v86dqrjrGeIdXOl0LMOsgXAg2Bv6FvbVFLvTt1YuiJL/t2pCiwT3xFr3V6HQveTN
vTrPM8r91fl/D/WyhJMo7/PDW1FJQEbEsH1aA5lC33Lm2BTNC/4tE6QPCOTP40IG
5ZJOci/TuidvDfAWQqxQXWHOu9Sr8a7e1/r8+0etVChVU088wj+YgwG3BqzFOQ==
-----END CERTIFICATE-----
