Certificate:
    Data:
        Version: 3 (0x2)
        Serial Number: 17 (0x11)
        Signature Algorithm: sha256WithRSAEncryption
        Issuer: C=CN, ST=some-state1, L=local1, O=org-name1, OU=org-unit1, CN=common-name1
        Validity
            Not Before: Oct  1 06:01:49 2021 GMT
            Not After : Oct  1 06:01:49 2022 GMT
        Subject: C=CN, ST=some-state1, O=org-name1, OU=org-unit1, CN=common-name1
        Subject Public Key Info:
            Public Key Algorithm: rsaEncryption
                RSA Public-Key: (2048 bit)
                Modulus:
                    00:b4:49:05:12:25:9b:d0:6e:d2:fb:8f:e9:b0:dd:
                    20:67:9e:2e:e5:3d:5a:2d:43:e9:05:97:d7:9a:cb:
                    34:01:ed:22:a2:cf:ee:21:c5:56:a3:8d:44:54:1d:
                    7f:1d:de:6b:b2:dc:6d:58:ad:8b:29:5c:15:11:57:
                    83:a8:95:fc:a8:b5:44:bf:54:2d:7e:0d:c1:0e:da:
                    c8:13:73:f7:4d:14:c1:8c:8e:3f:88:39:c1:f5:4b:
                    79:8a:69:9b:56:61:c2:3c:71:42:c9:1f:ef:dd:45:
                    97:41:ce:ab:87:88:18:97:30:7f:3e:72:d1:99:15:
                    bc:f5:07:d1:0e:0c:c7:06:4e:29:8e:95:5d:9f:ad:
                    b3:f8:1d:c1:9b:d0:ee:68:ce:f5:55:df:00:2a:ff:
                    70:02:56:ae:1d:5d:a4:f7:75:fa:d8:6b:71:7c:76:
                    66:88:38:d5:f0:67:51:e4:ab:39:9f:eb:69:0a:69:
                    46:f9:0e:27:f0:a1:48:57:00:2a:a9:de:99:08:35:
                    66:54:5d:f9:fa:20:59:10:17:00:69:7d:54:ec:7e:
                    ee:1a:a2:3b:e9:f0:7d:cf:a6:bd:8f:a6:f4:0f:99:
                    14:df:35:19:32:b1:b3:55:00:f4:68:d9:c0:cc:2c:
                    fc:c8:7f:48:db:86:f7:19:07:62:6f:1b:72:6b:83:
                    2f:15
                Exponent: 65537 (0x10001)
        X509v3 extensions:
            X509v3 Basic Constraints: 
                CA:FALSE
            X509v3 Key Usage: 
                Digital Signature, Non Repudiation, Key Encipherment
    Signature Algorithm: sha256WithRSAEncryption
         1a:9c:52:43:8a:e7:9d:35:3a:ec:a6:92:e6:ee:c1:57:9c:3d:
         b5:a9:5a:77:bf:8d:4f:1c:6c:de:23:51:78:f8:17:8b:de:e0:
         42:e0:63:62:f0:ed:34:9c:0c:2d:37:8b:d1:9c:9a:2d:77:fb:
         f5:93:ba:38:d1:4d:4e:62:6b:15:5d:d4:93:72:73:1d:e4:3b:
         e0:25:42:0f:3a:70:9d:57:9c:5b:28:c2:c9:0f:3b:08:17:f4:
         9c:c1:49:b2:a6:e7:11:8b:7f:29:1a:48:1d:91:c0:8b:a5:c0:
         ea:68:cc:3d:dd:56:86:70:16:cb:b0:2c:03:71:91:30:69:31:
         15:db:8a:d7:31:d9:0c:5e:22:22:60:b5:02:66:5b:e2:8e:ee:
         ed:65:94:be:85:08:70:a6:09:90:c3:d0:f7:6e:17:1e:0e:5c:
         ff:ea:61:25:2b:bf:a7:47:d1:88:3d:bf:6a:ff:51:38:49:36:
         d9:50:0b:95:9c:4a:2f:11:d0:28:70:ee:17:d0:60:22:04:56:
         61:b3:1b:fe:a0:38:66:ea:40:82:b8:5a:aa:cc:b2:54:dc:8f:
         da:f3:96:ff:59:52:a7:b3:01:b6:7a:9b:ad:e4:0b:a0:54:8f:
         ed:99:53:e7:d2:8d:ff:7d:19:f6:f2:82:b3:27:6b:37:2b:cb:
         a7:e4:f1:a9
-----BEGIN CERTIFICATE-----
MIIDajCCAlKgAwIBAgIBETANBgkqhkiG9w0BAQsFADBzMQswCQYDVQQGEwJDTjEU
MBIGA1UECAwLc29tZS1zdGF0ZTExDzANBgNVBAcMBmxvY2FsMTESMBAGA1UECgwJ
b3JnLW5hbWUxMRIwEAYDVQQLDAlvcmctdW5pdDExFTATBgNVBAMMDGNvbW1vbi1u
YW1lMTAeFw0yMTEwMDEwNjAxNDlaFw0yMjEwMDEwNjAxNDlaMGIxCzAJBgNVBAYT
AkNOMRQwEgYDVQQIDAtzb21lLXN0YXRlMTESMBAGA1UECgwJb3JnLW5hbWUxMRIw
EAYDVQQLDAlvcmctdW5pdDExFTATBgNVBAMMDGNvbW1vbi1uYW1lMTCCASIwDQYJ
KoZIhvcNAQEBBQADggEPADCCAQoCggEBALRJBRIlm9Bu0vuP6bDdIGeeLuU9Wi1D
6QWX15rLNAHtIqLP7iHFVqONRFQdfx3ea7LcbVitiylcFRFXg6iV/Ki1RL9ULX4N
wQ7ayBNz900UwYyOP4g5wfVLeYppm1ZhwjxxQskf791Fl0HOq4eIGJcwfz5y0ZkV
vPUH0Q4MxwZOKY6VXZ+ts/gdwZvQ7mjO9VXfACr/cAJWrh1dpPd1+thrcXx2Zog4
1fBnUeSrOZ/raQppRvkOJ/ChSFcAKqnemQg1ZlRd+fogWRAXAGl9VOx+7hqiO+nw
fc+mvY+m9A+ZFN81GTKxs1UA9GjZwMws/Mh/SNuG9xkHYm8bcmuDLxUCAwEAAaMa
MBgwCQYDVR0TBAIwADALBgNVHQ8EBAMCBeAwDQYJKoZIhvcNAQELBQADggEBABqc
UkOK5501OuymkubuwVecPbWpWne/jU8cbN4jUXj4F4ve4ELgY2Lw7TScDC03i9Gc
mi13+/WTujjRTU5iaxVd1JNycx3kO+AlQg86cJ1XnFsowskPOwgX9JzBSbKm5xGL
fykaSB2RwIulwOpozD3dVoZwFsuwLANxkTBpMRXbitcx2QxeIiJgtQJmW+KO7u1l
lL6FCHCmCZDD0PduFx4OXP/qYSUrv6dH0Yg9v2r/UThJNtlQC5WcSi8R0Chw7hfQ
YCIEVmGzG/6gOGbqQIK4WqrMslTcj9rzlv9ZUqezAbZ6m63kC6BUj+2ZU+fSjf99
GfbygrMnazcry6fk8ak=
-----END CERTIFICATE-----
